target datalayout = "e-m:e-p270:32:32-p271:32:32-p272:64:64-i64:64-i128:128-f80:128-n8:16:32:64-S128"
target triple = "x86_64-pc-linux-gnu"

@.str = private unnamed_addr constant [45 x i8] c"crc32_hw is not implemented on this platform\00", align 1
@_ZTISt13runtime_error = external constant ptr

; Function Attrs: mustprogress uwtable
define noundef i32 @_ZN5folly6detail8crc32_swEPKhmj(ptr noundef %0, i64 noundef %1, i32 noundef %2) #0 {
  %4 = alloca ptr, align 8
  %5 = alloca i64, align 8
  %6 = alloca i32, align 4
  %7 = alloca i32, align 4
  store ptr %0, ptr %4, align 8, !tbaa !7
  store i64 %1, ptr %5, align 8, !tbaa !12
  store i32 %2, ptr %6, align 4, !tbaa !14
  call void @llvm.lifetime.start.p0(i64 4, ptr %7) #6
  store i32 79764919, ptr %7, align 4, !tbaa !14
  %8 = load ptr, ptr %4, align 8, !tbaa !7
  %9 = load i64, ptr %5, align 8, !tbaa !12
  %10 = load i32, ptr %6, align 4, !tbaa !14
  %11 = call noundef i32 @_ZN5folly6detail6crc_swILj79764919EEEjPKhmj(ptr noundef %8, i64 noundef %9, i32 noundef %10)
  call void @llvm.lifetime.end.p0(i64 4, ptr %7) #6
  ret i32 %11
}

; Function Attrs: mustprogress uwtable
define noundef i32 @_ZN5folly6detail8crc32_hwEPKhmj(ptr noundef %0, i64 noundef %1, i32 noundef %2) #0 personality ptr @__gxx_personality_v0 {
  %4 = alloca ptr, align 8
  %5 = alloca i64, align 8
  %6 = alloca i32, align 4
  %7 = alloca ptr, align 8
  %8 = alloca i32, align 4
  store ptr %0, ptr %4, align 8, !tbaa !7
  store i64 %1, ptr %5, align 8, !tbaa !12
  store i32 %2, ptr %6, align 4, !tbaa !14
  %9 = call ptr @__cxa_allocate_exception(i64 16) #6
  invoke void @_ZNSt13runtime_errorC1EPKc(ptr noundef nonnull align 8 dereferenceable(16) %9, ptr noundef @.str)
          to label %10 unwind label %11

10:                                               ; preds = %3
  call void @__cxa_throw(ptr %9, ptr @_ZTISt13runtime_error, ptr @_ZNSt13runtime_errorD1Ev) #9
  unreachable

11:                                               ; preds = %3
  %12 = landingpad { ptr, i32 }
          cleanup
  %13 = extractvalue { ptr, i32 } %12, 0
  store ptr %13, ptr %7, align 8
  %14 = extractvalue { ptr, i32 } %12, 1
  store i32 %14, ptr %8, align 4
  call void @__cxa_free_exception(ptr %9) #6
  br label %15

15:                                               ; preds = %11
  %16 = load ptr, ptr %7, align 8
  %17 = load i32, ptr %8, align 4
  %18 = insertvalue { ptr, i32 } poison, ptr %16, 0
  %19 = insertvalue { ptr, i32 } %18, i32 %17, 1
  resume { ptr, i32 } %19
}

; Function Attrs: mustprogress nounwind uwtable
define noundef zeroext i1 @_ZN5folly6detail18crc32_hw_supportedEv() #3 {
  ret i1 false
}

; Function Attrs: mustprogress uwtable
define noundef i32 @_ZN5folly5crc32EPKhmj(ptr noundef %0, i64 noundef %1, i32 noundef %2) #0 {
  %4 = alloca i32, align 4
  %5 = alloca ptr, align 8
  %6 = alloca i64, align 8
  %7 = alloca i32, align 4
  store ptr %0, ptr %5, align 8, !tbaa !7
  store i64 %1, ptr %6, align 8, !tbaa !12
  store i32 %2, ptr %7, align 4, !tbaa !14
  %8 = call noundef zeroext i1 @_ZN5folly6detail18crc32_hw_supportedEv()
  br i1 %8, label %9, label %14

9:                                                ; preds = %3
  %10 = load ptr, ptr %5, align 8, !tbaa !7
  %11 = load i64, ptr %6, align 8, !tbaa !12
  %12 = load i32, ptr %7, align 4, !tbaa !14
  %13 = call noundef i32 @_ZN5folly6detail8crc32_hwEPKhmj(ptr noundef %10, i64 noundef %11, i32 noundef %12)
  store i32 %13, ptr %4, align 4
  br label %19

14:                                               ; preds = %3
  %15 = load ptr, ptr %5, align 8, !tbaa !7
  %16 = load i64, ptr %6, align 8, !tbaa !12
  %17 = load i32, ptr %7, align 4, !tbaa !14
  %18 = call noundef i32 @_ZN5folly6detail8crc32_swEPKhmj(ptr noundef %15, i64 noundef %16, i32 noundef %17)
  store i32 %18, ptr %4, align 4
  br label %19

19:                                               ; preds = %14, %9
  %20 = load i32, ptr %4, align 4
  ret i32 %20
}

; Function Attrs: mustprogress uwtable
define noundef i32 @_ZN5folly13crc32_combineEjjm(i32 noundef %0, i32 noundef %1, i64 noundef %2) #0 {
  %4 = alloca i32, align 4
  %5 = alloca i32, align 4
  %6 = alloca i32, align 4
  %7 = alloca i64, align 8
  %8 = alloca [4 x i8], align 1
  %9 = alloca i64, align 8
  %10 = alloca i32, align 4
  store i32 %0, ptr %5, align 4, !tbaa !14
  store i32 %1, ptr %6, align 4, !tbaa !14
  store i64 %2, ptr %7, align 8, !tbaa !12
  call void @llvm.lifetime.start.p0(i64 4, ptr %8) #6
  call void @llvm.memset.p0.i64(ptr align 1 %8, i8 0, i64 4, i1 false)
  call void @llvm.lifetime.start.p0(i64 8, ptr %9) #6
  %11 = load i64, ptr %7, align 8, !tbaa !12
  %12 = and i64 %11, 3
  store i64 %12, ptr %9, align 8, !tbaa !12
  %13 = load i64, ptr %9, align 8, !tbaa !12
  %14 = icmp ne i64 %13, 0
  br i1 %14, label %15, label %20

15:                                               ; preds = %3
  %16 = getelementptr inbounds [4 x i8], ptr %8, i64 0, i64 0
  %17 = load i64, ptr %9, align 8, !tbaa !12
  %18 = load i32, ptr %5, align 4, !tbaa !14
  %19 = call noundef i32 @_ZN5folly5crc32EPKhmj(ptr noundef %16, i64 noundef %17, i32 noundef %18)
  store i32 %19, ptr %5, align 4, !tbaa !14
  br label %20

20:                                               ; preds = %15, %3
  %21 = call noundef zeroext i1 @_ZN5folly6detail18crc32_hw_supportedEv()
  br i1 %21, label %22, label %27

22:                                               ; preds = %20
  %23 = load i32, ptr %5, align 4, !tbaa !14
  %24 = load i32, ptr %6, align 4, !tbaa !14
  %25 = load i64, ptr %7, align 8, !tbaa !12
  %26 = call noundef i32 @_ZN5folly6detail16crc32_combine_hwEjjm(i32 noundef %23, i32 noundef %24, i64 noundef %25)
  store i32 %26, ptr %4, align 4
  store i32 1, ptr %10, align 4
  br label %32

27:                                               ; preds = %20
  %28 = load i32, ptr %5, align 4, !tbaa !14
  %29 = load i32, ptr %6, align 4, !tbaa !14
  %30 = load i64, ptr %7, align 8, !tbaa !12
  %31 = call noundef i32 @_ZN5folly6detail16crc32_combine_swEjjm(i32 noundef %28, i32 noundef %29, i64 noundef %30)
  store i32 %31, ptr %4, align 4
  store i32 1, ptr %10, align 4
  br label %32

32:                                               ; preds = %27, %22
  call void @llvm.lifetime.end.p0(i64 8, ptr %9) #6
  call void @llvm.lifetime.end.p0(i64 4, ptr %8) #6
  %33 = load i32, ptr %4, align 4
  ret i32 %33
}