; Function Attrs: mustprogress uwtable
define noundef i32 @_ZN5folly13crc32_combineEjjm(i32 noundef %0, i32 noundef %1, i64 noundef %2) local_unnamed_addr #5 {
  %4 = alloca [4 x i8], align 4
  call void @llvm.lifetime.start.p0(i64 4, ptr nonnull %4) #9
  store i32 0, ptr %4, align 4
  %5 = and i64 %2, 3
  %.not = icmp eq i64 %5, 0
  br i1 %.not, label %8, label %6

6:                                                ; preds = %3
  %7 = call noundef i32 @_ZN5folly6detail6crc_swILj79764919EEEjPKhmj(ptr noundef nonnull %4, i64 noundef %5, i32 noundef %0)
  br label %8

8:                                                ; preds = %6, %3
  %.011 = phi i32 [ %7, %6 ], [ %0, %3 ]
  %9 = call noundef i32 @_ZN5folly6detail16crc32_combine_swEjjm(i32 noundef %.011, i32 noundef %1, i64 noundef %2)
  call void @llvm.lifetime.end.p0(i64 4, ptr nonnull %4) #9
  ret i32 %9
}